; Function Attrs: mustprogress uwtable
define hidden noundef double @_Z7getPSNRRKN2cv3MatES2_(ptr noundef nonnull align 8 dereferenceable(96) %0, ptr noundef nonnull align 8 dereferenceable(96) %1) local_unnamed_addr #4 personality ptr @__gxx_personality_v0 {
  %3 = alloca %"class.cv::Mat", align 8
  %4 = alloca %"class.cv::_InputArray", align 8
  %5 = alloca %"class.cv::_InputArray", align 8
  %6 = alloca %"class.cv::_OutputArray", align 8
  %7 = alloca %"class.cv::_OutputArray", align 8
  %8 = alloca %"class.cv::MatExpr", align 8
  %9 = alloca %"class.cv::_InputArray", align 8
  %10 = alloca %"class.cv::Scalar_", align 8
  %11 = alloca %"class.cv::_InputArray", align 8
  call void @_ZN2cv3MatC1Ev(ptr noundef nonnull align 8 dereferenceable(96) %3) #10
  %12 = getelementptr inbounds i8, ptr %4, i64 16
  store i32 0, ptr %12, align 8
  %13 = getelementptr inbounds i8, ptr %4, i64 20
  store i32 0, ptr %13, align 4
  store i32 16842752, ptr %4, align 8
  %14 = getelementptr inbounds i8, ptr %4, i64 8
  store ptr %0, ptr %14, align 8
  %15 = getelementptr inbounds i8, ptr %5, i64 16
  store i32 0, ptr %15, align 8
  %16 = getelementptr inbounds i8, ptr %5, i64 20
  store i32 0, ptr %16, align 4
  store i32 16842752, ptr %5, align 8
  %17 = getelementptr inbounds i8, ptr %5, i64 8
  store ptr %1, ptr %17, align 8
  %18 = getelementptr inbounds i8, ptr %6, i64 8
  %19 = getelementptr inbounds i8, ptr %6, i64 16
  store i64 0, ptr %19, align 8
  store i32 33619968, ptr %6, align 8
  store ptr %3, ptr %18, align 8
  invoke void @_ZN2cv7absdiffERKNS_11_InputArrayES2_RKNS_12_OutputArrayE(ptr noundef nonnull align 8 dereferenceable(24) %4, ptr noundef nonnull align 8 dereferenceable(24) %5, ptr noundef nonnull align 8 dereferenceable(24) %6)
          to label %20 unwind label %50

20:                                               ; preds = %2
  %21 = getelementptr inbounds i8, ptr %7, i64 8
  %22 = getelementptr inbounds i8, ptr %7, i64 16
  store i64 0, ptr %22, align 8
  store i32 33619968, ptr %7, align 8
  store ptr %3, ptr %21, align 8
  invoke void @_ZNK2cv3Mat9convertToERKNS_12_OutputArrayEidd(ptr noundef nonnull align 8 dereferenceable(96) %3, ptr noundef nonnull align 8 dereferenceable(24) %7, i32 noundef 5, double noundef 1.000000e+00, double noundef 0.000000e+00)
          to label %23 unwind label %52

23:                                               ; preds = %20
  %24 = getelementptr inbounds i8, ptr %9, i64 16
  store i32 0, ptr %24, align 8
  %25 = getelementptr inbounds i8, ptr %9, i64 20
  store i32 0, ptr %25, align 4
  store i32 16842752, ptr %9, align 8
  %26 = getelementptr inbounds i8, ptr %9, i64 8
  store ptr %3, ptr %26, align 8
  invoke void @_ZNK2cv3Mat3mulERKNS_11_InputArrayEd(ptr dead_on_unwind nonnull writable sret(%"class.cv::MatExpr") align 8 %8, ptr noundef nonnull align 8 dereferenceable(96) %3, ptr noundef nonnull align 8 dereferenceable(24) %9, double noundef 1.000000e+00)
          to label %27 unwind label %54

27:                                               ; preds = %23
  %28 = load ptr, ptr %8, align 8
  %29 = load ptr, ptr %28, align 8
  %30 = getelementptr inbounds i8, ptr %29, i64 24
  %31 = load ptr, ptr %30, align 8
  invoke void %31(ptr noundef nonnull align 8 dereferenceable(8) %28, ptr noundef nonnull align 8 dereferenceable(352) %8, ptr noundef nonnull align 8 dereferenceable(96) %3, i32 noundef -1)
          to label %32 unwind label %56

32:                                               ; preds = %27
  %33 = getelementptr inbounds i8, ptr %8, i64 208
  call void @_ZN2cv3MatD1Ev(ptr noundef nonnull align 8 dereferenceable(96) %33) #10
  %34 = getelementptr inbounds i8, ptr %8, i64 112
  call void @_ZN2cv3MatD1Ev(ptr noundef nonnull align 8 dereferenceable(96) %34) #10
  %35 = getelementptr inbounds i8, ptr %8, i64 16
  call void @_ZN2cv3MatD1Ev(ptr noundef nonnull align 8 dereferenceable(96) %35) #10
  %36 = getelementptr inbounds i8, ptr %11, i64 16
  store i32 0, ptr %36, align 8
  %37 = getelementptr inbounds i8, ptr %11, i64 20
  store i32 0, ptr %37, align 4
  store i32 16842752, ptr %11, align 8
  %38 = getelementptr inbounds i8, ptr %11, i64 8
  store ptr %3, ptr %38, align 8
  invoke void @_ZN2cv3sumERKNS_11_InputArrayE(ptr dead_on_unwind nonnull writable sret(%"class.cv::Scalar_") align 8 %10, ptr noundef nonnull align 8 dereferenceable(24) %11)
          to label %39 unwind label %58

39:                                               ; preds = %32
  %40 = load double, ptr %10, align 8
  %41 = getelementptr inbounds i8, ptr %10, i64 8
  %42 = load double, ptr %41, align 8
  %43 = fadd double %40, %42
  %44 = getelementptr inbounds i8, ptr %10, i64 16
  %45 = load double, ptr %44, align 8
  %46 = fadd double %43, %45
  %47 = fcmp ugt double %46, 1.000000e-10
  br i1 %47, label %60, label %74

48:                                               ; preds = %60
  %49 = landingpad { ptr, i32 }
          cleanup
  br label %75

50:                                               ; preds = %2
  %51 = landingpad { ptr, i32 }
          cleanup
  br label %75

52:                                               ; preds = %20
  %53 = landingpad { ptr, i32 }
          cleanup
  br label %75

54:                                               ; preds = %23
  %55 = landingpad { ptr, i32 }
          cleanup
  br label %75

56:                                               ; preds = %27
  %57 = landingpad { ptr, i32 }
          cleanup
  call void @_ZN2cv7MatExprD2Ev(ptr noundef nonnull align 8 dereferenceable(352) %8) #10
  br label %75

58:                                               ; preds = %32
  %59 = landingpad { ptr, i32 }
          cleanup
  br label %75

60:                                               ; preds = %39
  %61 = load i32, ptr %0, align 8
  %62 = invoke noundef i64 @_ZNK2cv3Mat5totalEv(ptr noundef nonnull align 8 dereferenceable(96) %0)
          to label %63 unwind label %48

63:                                               ; preds = %60
  %64 = lshr i32 %61, 3
  %65 = and i32 %64, 511
  %66 = add nuw nsw i32 %65, 1
  %67 = zext nneg i32 %66 to i64
  %68 = mul i64 %62, %67
  %69 = uitofp i64 %68 to double
  %70 = fdiv double %46, %69
  %71 = fdiv double 6.502500e+04, %70
  %72 = call double @log10(double noundef %71) #10
  %73 = fmul double %72, 1.000000e+01
  br label %74

74:                                               ; preds = %39, %63
  %.0 = phi double [ %73, %63 ], [ 0.000000e+00, %39 ]
  call void @_ZN2cv3MatD1Ev(ptr noundef nonnull align 8 dereferenceable(96) %3) #10
  ret double %.0

75:                                               ; preds = %54, %56, %50, %58, %52, %48
  %.pn20 = phi { ptr, i32 } [ %49, %48 ], [ %59, %58 ], [ %53, %52 ], [ %51, %50 ], [ %57, %56 ], [ %55, %54 ]
  call void @_ZN2cv3MatD1Ev(ptr noundef nonnull align 8 dereferenceable(96) %3) #10
  resume { ptr, i32 } %.pn20
}